target datalayout = "e-m:e-p270:32:32-p271:32:32-p272:64:64-i64:64-i128:128-f80:128-n8:16:32:64-S128"
target triple = "x86_64-unknown-linux-gnu"

%struct.__sigset_t = type { [16 x i64] }
%struct.sigaction = type { %union.anon.23, %struct.__sigset_t, i32, ptr }
%union.anon.23 = type { ptr }

; Function Attrs: noreturn nounwind sspstrong uwtable
define internal void @die_with_signal(i32 noundef %host_sig) #6 {
entry:
  %host_sig.addr = alloca i32, align 4
  %act = alloca %struct.sigaction, align 8
  store i32 %host_sig, ptr %host_sig.addr, align 4
  call void @llvm.memset.p0.i64(ptr align 8 %act, i8 0, i64 152, i1 false)
  %sa_mask = getelementptr inbounds %struct.sigaction, ptr %act, i32 0, i32 1
  %call = call i32 @sigfillset(ptr noundef %sa_mask) #9
  %0 = load i32, ptr %host_sig.addr, align 4
  %call1 = call i32 @sigaction(i32 noundef %0, ptr noundef %act, ptr noundef null) #9
  %call2 = call i32 @getpid() #9
  %1 = load i32, ptr %host_sig.addr, align 4
  %call3 = call i32 @kill(i32 noundef %call2, i32 noundef %1) #9
  %sa_mask4 = getelementptr inbounds %struct.sigaction, ptr %act, i32 0, i32 1
  %2 = load i32, ptr %host_sig.addr, align 4
  %call5 = call i32 @sigdelset(ptr noundef %sa_mask4, i32 noundef %2) #9
  %sa_mask6 = getelementptr inbounds %struct.sigaction, ptr %act, i32 0, i32 1
  %call7 = call i32 @sigsuspend(ptr noundef %sa_mask6)
  call void @_exit(i32 noundef 1) #10
  unreachable
}