; Function Attrs: noreturn nounwind sspstrong uwtable
define internal fastcc void @die_with_signal(i32 noundef %host_sig) unnamed_addr #11 {
entry:
  %act = alloca %struct.sigaction, align 8
  call void @llvm.memset.p0.i64(ptr noundef nonnull align 8 dereferenceable(152) %act, i8 0, i64 152, i1 false)
  %sa_mask = getelementptr inbounds nuw i8, ptr %act, i64 8
  %call = call i32 @sigfillset(ptr noundef nonnull %sa_mask) #16
  %call1 = call i32 @sigaction(i32 noundef %host_sig, ptr noundef nonnull %act, ptr noundef null) #16
  %call2 = call i32 @getpid() #16
  %call3 = call i32 @kill(i32 noundef %call2, i32 noundef %host_sig) #16
  %call5 = call i32 @sigdelset(ptr noundef nonnull %sa_mask, i32 noundef %host_sig) #16
  %call7 = call i32 @sigsuspend(ptr noundef nonnull %sa_mask) #16
  call void @_exit(i32 noundef 1) #17
  unreachable
}